target datalayout = "e-m:e-p270:32:32-p271:32:32-p272:64:64-i64:64-i128:128-f80:128-n8:16:32:64-S128"
target triple = "x86_64-pc-linux-gnu"

%struct.timeval = type { i64, i64 }

@trace_events_enabled_count = external global i32, align 4
@message_with_timestamp = external global i8, align 1
@qemu_loglevel = external global i32, align 4
@_TRACE_GDBSTUB_HIT_WATCHPOINT_DSTATE = external global i16, align 2
@.str.25 = private unnamed_addr constant [83 x i8] c"%d@%zu.%06zu:gdbstub_hit_watchpoint Watchpoint hit, type=\22%s\22 cpu=%d, vaddr=0x%lx\0A\00", align 1
@.str.26 = private unnamed_addr constant [70 x i8] c"gdbstub_hit_watchpoint Watchpoint hit, type=\22%s\22 cpu=%d, vaddr=0x%lx\0A\00", align 1

; Function Attrs: inlinehint nounwind sspstrong uwtable
define internal zeroext i1 @qemu_loglevel_mask(i32 noundef %0) #3 {
  %2 = alloca i32, align 4
  store i32 %0, ptr %2, align 4
  %3 = load i32, ptr @qemu_loglevel, align 4
  %4 = load i32, ptr %2, align 4
  %5 = and i32 %3, %4
  %6 = icmp ne i32 %5, 0
  ret i1 %6
}

; Function Attrs: inlinehint nounwind sspstrong uwtable
define internal void @_nocheck__trace_gdbstub_hit_watchpoint(ptr noundef %0, i32 noundef %1, i64 noundef %2) #3 {
  %4 = alloca ptr, align 8
  %5 = alloca i32, align 4
  %6 = alloca i64, align 8
  %7 = alloca %struct.timeval, align 8
  store ptr %0, ptr %4, align 8
  store i32 %1, ptr %5, align 4
  store i64 %2, ptr %6, align 8
  %8 = load i32, ptr @trace_events_enabled_count, align 4
  %9 = icmp ne i32 %8, 0
  %10 = xor i1 %9, true
  %11 = xor i1 %10, true
  %12 = zext i1 %11 to i32
  %13 = sext i32 %12 to i64
  %14 = call i64 @llvm.expect.i64(i64 %13, i64 0)
  %15 = icmp ne i64 %14, 0
  br i1 %15, label %16, label %40

16:                                               ; preds = %3
  %17 = load i16, ptr @_TRACE_GDBSTUB_HIT_WATCHPOINT_DSTATE, align 2
  %18 = zext i16 %17 to i32
  %19 = icmp ne i32 %18, 0
  br i1 %19, label %20, label %40

20:                                               ; preds = %16
  %21 = call zeroext i1 @qemu_loglevel_mask(i32 noundef 32768)
  br i1 %21, label %22, label %40

22:                                               ; preds = %20
  %23 = load i8, ptr @message_with_timestamp, align 1, !range !7, !noundef !8
  %24 = trunc i8 %23 to i1
  br i1 %24, label %25, label %35

25:                                               ; preds = %22
  call void @llvm.lifetime.start.p0(i64 16, ptr %7) #14
  call void @llvm.memset.p0.i64(ptr align 8 %7, i8 0, i64 16, i1 false), !annotation !4
  %26 = call i32 @gettimeofday(ptr noundef %7, ptr noundef null) #14
  %27 = call i32 @qemu_get_thread_id()
  %28 = getelementptr inbounds nuw %struct.timeval, ptr %7, i32 0, i32 0
  %29 = load i64, ptr %28, align 8
  %30 = getelementptr inbounds nuw %struct.timeval, ptr %7, i32 0, i32 1
  %31 = load i64, ptr %30, align 8
  %32 = load ptr, ptr %4, align 8
  %33 = load i32, ptr %5, align 4
  %34 = load i64, ptr %6, align 8
  call void (ptr, ...) @qemu_log(ptr noundef @.str.25, i32 noundef %27, i64 noundef %29, i64 noundef %31, ptr noundef %32, i32 noundef %33, i64 noundef %34)
  call void @llvm.lifetime.end.p0(i64 16, ptr %7) #14
  br label %39

35:                                               ; preds = %22
  %36 = load ptr, ptr %4, align 8
  %37 = load i32, ptr %5, align 4
  %38 = load i64, ptr %6, align 8
  call void (ptr, ...) @qemu_log(ptr noundef @.str.26, ptr noundef %36, i32 noundef %37, i64 noundef %38)
  br label %39

39:                                               ; preds = %35, %25
  br label %40

40:                                               ; preds = %39, %20, %16, %3
  ret void
}

; Function Attrs: inlinehint nounwind sspstrong uwtable
define internal void @trace_gdbstub_hit_watchpoint(ptr noundef %0, i32 noundef %1, i64 noundef %2) #3 {
  %4 = alloca ptr, align 8
  %5 = alloca i32, align 4
  %6 = alloca i64, align 8
  store ptr %0, ptr %4, align 8
  store i32 %1, ptr %5, align 4
  store i64 %2, ptr %6, align 8
  %7 = load ptr, ptr %4, align 8
  %8 = load i32, ptr %5, align 4
  %9 = load i64, ptr %6, align 8
  call void @_nocheck__trace_gdbstub_hit_watchpoint(ptr noundef %7, i32 noundef %8, i64 noundef %9)
  ret void
}